target datalayout = "e-m:e-p270:32:32-p271:32:32-p272:64:64-i64:64-i128:128-f80:128-n8:16:32:64-S128"
target triple = "x86_64-pc-linux-gnu"

%union.pthread_mutex_t = type { %struct.__pthread_mutex_s }
%struct.__pthread_mutex_s = type { i32, i32, i32, i32, i32, i16, i16, %struct.__pthread_internal_list }
%struct.__pthread_internal_list = type { ptr, ptr }
%struct.slurmctld_lock_t = type { i32, i32, i32, i32, i32 }

@trigger_mutex = internal global %union.pthread_mutex_t zeroinitializer, align 8
@.str.2 = private unnamed_addr constant [29 x i8] c"%s: pthread_mutex_lock(): %m\00", align 1
@.str.3 = private unnamed_addr constant [31 x i8] c"%s: pthread_mutex_unlock(): %m\00", align 1
@__const.trigger_reconfig.node_read_lock = private unnamed_addr constant %struct.slurmctld_lock_t { i32 0, i32 0, i32 1, i32 0, i32 0 }, align 4
@__func__.trigger_reconfig = private unnamed_addr constant [17 x i8] c"trigger_reconfig\00", align 1
@trigger_node_reconfig = internal global i8 0, align 1

; Function Attrs: nounwind uwtable
define dso_local void @trigger_reconfig() #0 {
  %1 = alloca %struct.slurmctld_lock_t, align 8
  %2 = alloca i32, align 4
  %3 = alloca i32, align 4
  call void @llvm.lifetime.start.p0(i64 20, ptr %1) #10
  call void @llvm.memcpy.p0.p0.i64(ptr align 4 %1, ptr align 4 @__const.trigger_reconfig.node_read_lock, i64 20, i1 false)
  call void @lock_slurmctld(ptr noundef byval(%struct.slurmctld_lock_t) align 8 %1)
  br label %4

4:                                                ; preds = %0
  call void @llvm.lifetime.start.p0(i64 4, ptr %2) #10
  %5 = call i32 @pthread_mutex_lock(ptr noundef @trigger_mutex) #10
  store i32 %5, ptr %2, align 4
  %6 = load i32, ptr %2, align 4
  %7 = icmp ne i32 %6, 0
  br i1 %7, label %8, label %11

8:                                                ; preds = %4
  %9 = load i32, ptr %2, align 4
  %10 = call ptr @__errno_location() #11
  store i32 %9, ptr %10, align 4
  call void (ptr, ...) @fatal_abort(ptr noundef @.str.2, ptr noundef @__func__.trigger_reconfig) #12
  unreachable

11:                                               ; preds = %4
  call void @llvm.lifetime.end.p0(i64 4, ptr %2) #10
  br label %12

12:                                               ; preds = %11
  br label %13

13:                                               ; preds = %12
  store i8 1, ptr @trigger_node_reconfig, align 1
  br label %14

14:                                               ; preds = %13
  call void @llvm.lifetime.start.p0(i64 4, ptr %3) #10
  %15 = call i32 @pthread_mutex_unlock(ptr noundef @trigger_mutex) #10
  store i32 %15, ptr %3, align 4
  %16 = load i32, ptr %3, align 4
  %17 = icmp ne i32 %16, 0
  br i1 %17, label %18, label %21

18:                                               ; preds = %14
  %19 = load i32, ptr %3, align 4
  %20 = call ptr @__errno_location() #11
  store i32 %19, ptr %20, align 4
  call void (ptr, ...) @fatal_abort(ptr noundef @.str.3, ptr noundef @__func__.trigger_reconfig) #12
  unreachable

21:                                               ; preds = %14
  call void @llvm.lifetime.end.p0(i64 4, ptr %3) #10
  br label %22

22:                                               ; preds = %21
  br label %23

23:                                               ; preds = %22
  call void @unlock_slurmctld(ptr noundef byval(%struct.slurmctld_lock_t) align 8 %1)
  call void @llvm.lifetime.end.p0(i64 20, ptr %1) #10
  ret void
}